target datalayout = "e-m:e-p270:32:32-p271:32:32-p272:64:64-i64:64-i128:128-f80:128-n8:16:32:64-S128"
target triple = "x86_64-pc-linux-gnu"

%struct.HashJoinTableData = type { i32, i32, i32, i32, i32, %union.anon, i8, ptr, i32, i32, ptr, i32, i32, i32, i32, i8, double, double, double, ptr, ptr, i64, i64, i64, i64, i64, ptr, ptr, ptr, ptr, ptr, ptr, ptr, ptr, i64 }
%union.anon = type { ptr }
%struct.ParallelHashJoinState = type { i64, i64, i32, i32, i32, i32, i64, i32, i64, i64, %struct.LWLock, %struct.Barrier, %struct.Barrier, %struct.Barrier, %struct.pg_atomic_uint32, %struct.SharedFileSet }
%struct.LWLock = type { i16, %struct.pg_atomic_uint32, %struct.proclist_head }
%struct.proclist_head = type { i32, i32 }
%struct.Barrier = type { i8, i32, i32, i32, i32, i8, %struct.ConditionVariable }
%struct.ConditionVariable = type { i8, %struct.proclist_head }
%struct.pg_atomic_uint32 = type { i32 }
%struct.SharedFileSet = type { %struct.FileSet, i8, i32 }
%struct.FileSet = type { i32, i32, i32, [8 x i32] }
%struct.ParallelHashJoinBatchAccessor = type { ptr, i64, i64, i64, i64, i64, i8, i8, i8, ptr, ptr }
%struct.ParallelHashJoinBatch = type { i64, %struct.Barrier, i64, i64, i64, i64, i64, i8, i8 }

@CurrentMemoryContext = external global ptr, align 8
@ParallelWorkerNumber = external global i32, align 4
@.str.5 = private unnamed_addr constant [8 x i8] c"i%dof%d\00", align 1
@.str.6 = private unnamed_addr constant [8 x i8] c"o%dof%d\00", align 1

; Function Attrs: inlinehint nounwind uwtable
define internal ptr @MemoryContextSwitchTo(ptr noundef %0) #3 {
  %2 = alloca ptr, align 8
  %3 = alloca ptr, align 8
  store ptr %0, ptr %2, align 8
  call void @llvm.lifetime.start.p0(i64 8, ptr %3) #9
  %4 = load ptr, ptr @CurrentMemoryContext, align 8
  store ptr %4, ptr %3, align 8
  %5 = load ptr, ptr %2, align 8
  store ptr %5, ptr @CurrentMemoryContext, align 8
  %6 = load ptr, ptr %3, align 8
  call void @llvm.lifetime.end.p0(i64 8, ptr %3) #9
  ret ptr %6
}

; Function Attrs: nounwind uwtable
define internal void @ExecParallelHashJoinSetUpBatches(ptr noundef %0, i32 noundef %1) #0 {
  %3 = alloca ptr, align 8
  %4 = alloca i32, align 4
  %5 = alloca ptr, align 8
  %6 = alloca ptr, align 8
  %7 = alloca ptr, align 8
  %8 = alloca i32, align 4
  %9 = alloca ptr, align 8
  %10 = alloca ptr, align 8
  %11 = alloca [1024 x i8], align 16
  store ptr %0, ptr %3, align 8
  store i32 %1, ptr %4, align 4
  call void @llvm.lifetime.start.p0(i64 8, ptr %5) #9
  %12 = load ptr, ptr %3, align 8
  %13 = getelementptr inbounds nuw %struct.HashJoinTableData, ptr %12, i32 0, i32 32
  %14 = load ptr, ptr %13, align 8
  store ptr %14, ptr %5, align 8
  call void @llvm.lifetime.start.p0(i64 8, ptr %6) #9
  call void @llvm.lifetime.start.p0(i64 8, ptr %7) #9
  call void @llvm.lifetime.start.p0(i64 4, ptr %8) #9
  %15 = load ptr, ptr %3, align 8
  %16 = getelementptr inbounds nuw %struct.HashJoinTableData, ptr %15, i32 0, i32 31
  %17 = load ptr, ptr %16, align 8
  %18 = load ptr, ptr %3, align 8
  %19 = getelementptr inbounds nuw %struct.HashJoinTableData, ptr %18, i32 0, i32 32
  %20 = load ptr, ptr %19, align 8
  %21 = getelementptr inbounds nuw %struct.ParallelHashJoinState, ptr %20, i32 0, i32 7
  %22 = load i32, ptr %21, align 8
  %23 = call i64 @sts_estimate(i32 noundef %22)
  %24 = add i64 %23, 7
  %25 = and i64 %24, -8
  %26 = mul i64 %25, 2
  %27 = add i64 96, %26
  %28 = load i32, ptr %4, align 4
  %29 = sext i32 %28 to i64
  %30 = mul i64 %27, %29
  %31 = call i64 @dsa_allocate_extended(ptr noundef %17, i64 noundef %30, i32 noundef 4)
  %32 = load ptr, ptr %5, align 8
  %33 = getelementptr inbounds nuw %struct.ParallelHashJoinState, ptr %32, i32 0, i32 0
  store i64 %31, ptr %33, align 8
  %34 = load i32, ptr %4, align 4
  %35 = load ptr, ptr %5, align 8
  %36 = getelementptr inbounds nuw %struct.ParallelHashJoinState, ptr %35, i32 0, i32 2
  store i32 %34, ptr %36, align 8
  %37 = load ptr, ptr %3, align 8
  %38 = getelementptr inbounds nuw %struct.HashJoinTableData, ptr %37, i32 0, i32 31
  %39 = load ptr, ptr %38, align 8
  %40 = load ptr, ptr %5, align 8
  %41 = getelementptr inbounds nuw %struct.ParallelHashJoinState, ptr %40, i32 0, i32 0
  %42 = load i64, ptr %41, align 8
  %43 = call ptr @dsa_get_address(ptr noundef %39, i64 noundef %42)
  store ptr %43, ptr %6, align 8
  %44 = load ptr, ptr %3, align 8
  %45 = getelementptr inbounds nuw %struct.HashJoinTableData, ptr %44, i32 0, i32 28
  %46 = load ptr, ptr %45, align 8
  %47 = call ptr @MemoryContextSwitchTo(ptr noundef %46)
  store ptr %47, ptr %7, align 8
  %48 = load i32, ptr %4, align 4
  %49 = load ptr, ptr %3, align 8
  %50 = getelementptr inbounds nuw %struct.HashJoinTableData, ptr %49, i32 0, i32 11
  store i32 %48, ptr %50, align 8
  %51 = load ptr, ptr %3, align 8
  %52 = getelementptr inbounds nuw %struct.HashJoinTableData, ptr %51, i32 0, i32 11
  %53 = load i32, ptr %52, align 8
  %54 = sext i32 %53 to i64
  %55 = mul i64 72, %54
  %56 = call ptr @palloc0(i64 noundef %55)
  %57 = load ptr, ptr %3, align 8
  %58 = getelementptr inbounds nuw %struct.HashJoinTableData, ptr %57, i32 0, i32 33
  store ptr %56, ptr %58, align 8
  store i32 0, ptr %8, align 4
  br label %59

59:                                               ; preds = %157, %2
  %60 = load i32, ptr %8, align 4
  %61 = load ptr, ptr %3, align 8
  %62 = getelementptr inbounds nuw %struct.HashJoinTableData, ptr %61, i32 0, i32 11
  %63 = load i32, ptr %62, align 8
  %64 = icmp slt i32 %60, %63
  br i1 %64, label %65, label %160

65:                                               ; preds = %59
  call void @llvm.lifetime.start.p0(i64 8, ptr %9) #9
  %66 = load ptr, ptr %3, align 8
  %67 = getelementptr inbounds nuw %struct.HashJoinTableData, ptr %66, i32 0, i32 33
  %68 = load ptr, ptr %67, align 8
  %69 = load i32, ptr %8, align 4
  %70 = sext i32 %69 to i64
  %71 = getelementptr inbounds %struct.ParallelHashJoinBatchAccessor, ptr %68, i64 %70
  store ptr %71, ptr %9, align 8
  call void @llvm.lifetime.start.p0(i64 8, ptr %10) #9
  %72 = load ptr, ptr %6, align 8
  %73 = load ptr, ptr %3, align 8
  %74 = getelementptr inbounds nuw %struct.HashJoinTableData, ptr %73, i32 0, i32 32
  %75 = load ptr, ptr %74, align 8
  %76 = getelementptr inbounds nuw %struct.ParallelHashJoinState, ptr %75, i32 0, i32 7
  %77 = load i32, ptr %76, align 8
  %78 = call i64 @sts_estimate(i32 noundef %77)
  %79 = add i64 %78, 7
  %80 = and i64 %79, -8
  %81 = mul i64 %80, 2
  %82 = add i64 96, %81
  %83 = load i32, ptr %8, align 4
  %84 = sext i32 %83 to i64
  %85 = mul i64 %82, %84
  %86 = getelementptr inbounds nuw i8, ptr %72, i64 %85
  store ptr %86, ptr %10, align 8
  call void @llvm.lifetime.start.p0(i64 1024, ptr %11) #9
  %87 = load ptr, ptr %10, align 8
  %88 = getelementptr inbounds nuw %struct.ParallelHashJoinBatch, ptr %87, i32 0, i32 1
  call void @BarrierInit(ptr noundef %88, i32 noundef 0)
  %89 = load i32, ptr %8, align 4
  %90 = icmp eq i32 %89, 0
  br i1 %90, label %91, label %108

91:                                               ; preds = %65
  %92 = load ptr, ptr %10, align 8
  %93 = getelementptr inbounds nuw %struct.ParallelHashJoinBatch, ptr %92, i32 0, i32 1
  %94 = call i32 @BarrierAttach(ptr noundef %93)
  br label %95

95:                                               ; preds = %100, %91
  %96 = load ptr, ptr %10, align 8
  %97 = getelementptr inbounds nuw %struct.ParallelHashJoinBatch, ptr %96, i32 0, i32 1
  %98 = call i32 @BarrierPhase(ptr noundef %97)
  %99 = icmp slt i32 %98, 3
  br i1 %99, label %100, label %104

100:                                              ; preds = %95
  %101 = load ptr, ptr %10, align 8
  %102 = getelementptr inbounds nuw %struct.ParallelHashJoinBatch, ptr %101, i32 0, i32 1
  %103 = call zeroext i1 @BarrierArriveAndWait(ptr noundef %102, i32 noundef 0)
  br label %95, !llvm.loop !8

104:                                              ; preds = %95
  %105 = load ptr, ptr %10, align 8
  %106 = getelementptr inbounds nuw %struct.ParallelHashJoinBatch, ptr %105, i32 0, i32 1
  %107 = call zeroext i1 @BarrierDetach(ptr noundef %106)
  br label %108

108:                                              ; preds = %104, %65
  %109 = load ptr, ptr %10, align 8
  %110 = load ptr, ptr %9, align 8
  %111 = getelementptr inbounds nuw %struct.ParallelHashJoinBatchAccessor, ptr %110, i32 0, i32 0
  store ptr %109, ptr %111, align 8
  %112 = getelementptr inbounds [1024 x i8], ptr %11, i64 0, i64 0
  %113 = load i32, ptr %8, align 4
  %114 = load ptr, ptr %3, align 8
  %115 = getelementptr inbounds nuw %struct.HashJoinTableData, ptr %114, i32 0, i32 11
  %116 = load i32, ptr %115, align 8
  %117 = call i32 (ptr, i64, ptr, ...) @pg_snprintf(ptr noundef %112, i64 noundef 1024, ptr noundef @.str.5, i32 noundef %113, i32 noundef %116)
  %118 = load ptr, ptr %10, align 8
  %119 = getelementptr inbounds nuw i8, ptr %118, i64 96
  %120 = load ptr, ptr %5, align 8
  %121 = getelementptr inbounds nuw %struct.ParallelHashJoinState, ptr %120, i32 0, i32 7
  %122 = load i32, ptr %121, align 8
  %123 = load i32, ptr @ParallelWorkerNumber, align 4
  %124 = add i32 %123, 1
  %125 = load ptr, ptr %5, align 8
  %126 = getelementptr inbounds nuw %struct.ParallelHashJoinState, ptr %125, i32 0, i32 15
  %127 = getelementptr inbounds [1024 x i8], ptr %11, i64 0, i64 0
  %128 = call ptr @sts_initialize(ptr noundef %119, i32 noundef %122, i32 noundef %124, i64 noundef 4, i32 noundef 1, ptr noundef %126, ptr noundef %127)
  %129 = load ptr, ptr %9, align 8
  %130 = getelementptr inbounds nuw %struct.ParallelHashJoinBatchAccessor, ptr %129, i32 0, i32 9
  store ptr %128, ptr %130, align 8
  %131 = getelementptr inbounds [1024 x i8], ptr %11, i64 0, i64 0
  %132 = load i32, ptr %8, align 4
  %133 = load ptr, ptr %3, align 8
  %134 = getelementptr inbounds nuw %struct.HashJoinTableData, ptr %133, i32 0, i32 11
  %135 = load i32, ptr %134, align 8
  %136 = call i32 (ptr, i64, ptr, ...) @pg_snprintf(ptr noundef %131, i64 noundef 1024, ptr noundef @.str.6, i32 noundef %132, i32 noundef %135)
  %137 = load ptr, ptr %10, align 8
  %138 = getelementptr inbounds nuw i8, ptr %137, i64 96
  %139 = load ptr, ptr %5, align 8
  %140 = getelementptr inbounds nuw %struct.ParallelHashJoinState, ptr %139, i32 0, i32 7
  %141 = load i32, ptr %140, align 8
  %142 = call i64 @sts_estimate(i32 noundef %141)
  %143 = add i64 %142, 7
  %144 = and i64 %143, -8
  %145 = getelementptr inbounds nuw i8, ptr %138, i64 %144
  %146 = load ptr, ptr %5, align 8
  %147 = getelementptr inbounds nuw %struct.ParallelHashJoinState, ptr %146, i32 0, i32 7
  %148 = load i32, ptr %147, align 8
  %149 = load i32, ptr @ParallelWorkerNumber, align 4
  %150 = add i32 %149, 1
  %151 = load ptr, ptr %5, align 8
  %152 = getelementptr inbounds nuw %struct.ParallelHashJoinState, ptr %151, i32 0, i32 15
  %153 = getelementptr inbounds [1024 x i8], ptr %11, i64 0, i64 0
  %154 = call ptr @sts_initialize(ptr noundef %145, i32 noundef %148, i32 noundef %150, i64 noundef 4, i32 noundef 1, ptr noundef %152, ptr noundef %153)
  %155 = load ptr, ptr %9, align 8
  %156 = getelementptr inbounds nuw %struct.ParallelHashJoinBatchAccessor, ptr %155, i32 0, i32 10
  store ptr %154, ptr %156, align 8
  call void @llvm.lifetime.end.p0(i64 1024, ptr %11) #9
  call void @llvm.lifetime.end.p0(i64 8, ptr %10) #9
  call void @llvm.lifetime.end.p0(i64 8, ptr %9) #9
  br label %157

157:                                              ; preds = %108
  %158 = load i32, ptr %8, align 4
  %159 = add i32 %158, 1
  store i32 %159, ptr %8, align 4
  br label %59, !llvm.loop !9

160:                                              ; preds = %59
  %161 = load ptr, ptr %7, align 8
  %162 = call ptr @MemoryContextSwitchTo(ptr noundef %161)
  call void @llvm.lifetime.end.p0(i64 4, ptr %8) #9
  call void @llvm.lifetime.end.p0(i64 8, ptr %7) #9
  call void @llvm.lifetime.end.p0(i64 8, ptr %6) #9
  call void @llvm.lifetime.end.p0(i64 8, ptr %5) #9
  ret void
}