; Function Attrs: nounwind uwtable
define internal fastcc void @ExecParallelHashJoinSetUpBatches(ptr noundef captures(none) initializes((64, 68), (224, 232)) %0, i32 noundef %1) unnamed_addr #0 {
  %3 = alloca [1024 x i8], align 16
  %4 = getelementptr inbounds nuw i8, ptr %0, i64 216
  %5 = load ptr, ptr %4, align 8
  %6 = getelementptr inbounds nuw i8, ptr %0, i64 208
  %7 = load ptr, ptr %6, align 8
  %8 = getelementptr inbounds nuw i8, ptr %5, i64 40
  %9 = load i32, ptr %8, align 8
  %10 = tail call i64 @sts_estimate(i32 noundef %9) #16
  %11 = shl i64 %10, 1
  %12 = add i64 %11, 14
  %13 = and i64 %12, -16
  %14 = add i64 %13, 96
  %15 = sext i32 %1 to i64
  %16 = mul i64 %14, %15
  %17 = tail call i64 @dsa_allocate_extended(ptr noundef %7, i64 noundef %16, i32 noundef 4) #16
  store i64 %17, ptr %5, align 8
  %18 = getelementptr inbounds nuw i8, ptr %5, i64 16
  store i32 %1, ptr %18, align 8
  %19 = load ptr, ptr %6, align 8
  %20 = tail call ptr @dsa_get_address(ptr noundef %19, i64 noundef %17) #16
  %21 = getelementptr inbounds nuw i8, ptr %0, i64 184
  %22 = load ptr, ptr %21, align 8
  %23 = load ptr, ptr @CurrentMemoryContext, align 8
  store ptr %22, ptr @CurrentMemoryContext, align 8
  %24 = getelementptr inbounds nuw i8, ptr %0, i64 64
  store i32 %1, ptr %24, align 8
  %25 = mul nsw i64 %15, 72
  %26 = tail call ptr @palloc0(i64 noundef %25) #16
  %27 = getelementptr inbounds nuw i8, ptr %0, i64 224
  store ptr %26, ptr %27, align 8
  %28 = load i32, ptr %24, align 8
  %29 = icmp sgt i32 %28, 0
  br i1 %29, label %.lr.ph45, label %._crit_edge46

.lr.ph45:                                         ; preds = %2
  %30 = getelementptr inbounds nuw i8, ptr %5, i64 192
  br label %31

31:                                               ; preds = %.lr.ph45, %54
  %indvars.iv = phi i64 [ 0, %.lr.ph45 ], [ %indvars.iv.next, %54 ]
  %32 = load ptr, ptr %27, align 8
  %33 = getelementptr inbounds nuw %struct.ParallelHashJoinBatchAccessor, ptr %32, i64 %indvars.iv
  %34 = load ptr, ptr %4, align 8
  %35 = getelementptr inbounds nuw i8, ptr %34, i64 40
  %36 = load i32, ptr %35, align 8
  %37 = call i64 @sts_estimate(i32 noundef %36) #16
  %38 = shl i64 %37, 1
  %39 = add i64 %38, 14
  %40 = and i64 %39, -16
  %41 = add i64 %40, 96
  %42 = mul i64 %41, %indvars.iv
  %43 = getelementptr inbounds nuw i8, ptr %20, i64 %42
  call void @llvm.lifetime.start.p0(i64 1024, ptr nonnull %3) #16
  %44 = getelementptr inbounds nuw i8, ptr %43, i64 8
  call void @BarrierInit(ptr noundef nonnull %44, i32 noundef 0) #16
  %45 = icmp eq i64 %indvars.iv, 0
  br i1 %45, label %46, label %54

46:                                               ; preds = %31
  %47 = call i32 @BarrierAttach(ptr noundef nonnull %44) #16
  %48 = call i32 @BarrierPhase(ptr noundef nonnull %44) #16
  %49 = icmp slt i32 %48, 3
  br i1 %49, label %.lr.ph, label %._crit_edge

.lr.ph:                                           ; preds = %46, %.lr.ph
  %50 = call zeroext i1 @BarrierArriveAndWait(ptr noundef nonnull %44, i32 noundef 0) #16
  %51 = call i32 @BarrierPhase(ptr noundef nonnull %44) #16
  %52 = icmp slt i32 %51, 3
  br i1 %52, label %.lr.ph, label %._crit_edge, !llvm.loop !19

._crit_edge:                                      ; preds = %.lr.ph, %46
  %53 = call zeroext i1 @BarrierDetach(ptr noundef nonnull %44) #16
  br label %54

54:                                               ; preds = %._crit_edge, %31
  store ptr %43, ptr %33, align 8
  %55 = load i32, ptr %24, align 8
  %56 = trunc nuw nsw i64 %indvars.iv to i32
  %57 = call i32 (ptr, i64, ptr, ...) @pg_snprintf(ptr noundef nonnull %3, i64 noundef 1024, ptr noundef nonnull @.str.5, i32 noundef %56, i32 noundef %55) #16
  %58 = getelementptr inbounds nuw i8, ptr %43, i64 96
  %59 = load i32, ptr %8, align 8
  %60 = load i32, ptr @ParallelWorkerNumber, align 4
  %61 = add i32 %60, 1
  %62 = call ptr @sts_initialize(ptr noundef nonnull %58, i32 noundef %59, i32 noundef %61, i64 noundef 4, i32 noundef 1, ptr noundef nonnull %30, ptr noundef nonnull %3) #16
  %63 = getelementptr inbounds nuw i8, ptr %33, i64 56
  store ptr %62, ptr %63, align 8
  %64 = load i32, ptr %24, align 8
  %65 = call i32 (ptr, i64, ptr, ...) @pg_snprintf(ptr noundef nonnull %3, i64 noundef 1024, ptr noundef nonnull @.str.6, i32 noundef %56, i32 noundef %64) #16
  %66 = load i32, ptr %8, align 8
  %67 = call i64 @sts_estimate(i32 noundef %66) #16
  %68 = add i64 %67, 7
  %69 = and i64 %68, -8
  %70 = getelementptr inbounds nuw i8, ptr %58, i64 %69
  %71 = load i32, ptr %8, align 8
  %72 = load i32, ptr @ParallelWorkerNumber, align 4
  %73 = add i32 %72, 1
  %74 = call ptr @sts_initialize(ptr noundef nonnull %70, i32 noundef %71, i32 noundef %73, i64 noundef 4, i32 noundef 1, ptr noundef nonnull %30, ptr noundef nonnull %3) #16
  %75 = getelementptr inbounds nuw i8, ptr %33, i64 64
  store ptr %74, ptr %75, align 8
  call void @llvm.lifetime.end.p0(i64 1024, ptr nonnull %3) #16
  %indvars.iv.next = add nuw nsw i64 %indvars.iv, 1
  %76 = load i32, ptr %24, align 8
  %77 = sext i32 %76 to i64
  %78 = icmp slt i64 %indvars.iv.next, %77
  br i1 %78, label %31, label %._crit_edge46, !llvm.loop !20

._crit_edge46:                                    ; preds = %54, %2
  store ptr %23, ptr @CurrentMemoryContext, align 8
  ret void
}